target datalayout = "e-m:e-p270:32:32-p271:32:32-p272:64:64-i64:64-i128:128-f80:128-n8:16:32:64-S128"
target triple = "x86_64-pc-linux-gnu"

%"struct.cv::optflow::GPCPatchDescriptor" = type { %"class.cv::Vec" }
%"class.cv::Vec" = type { %"class.cv::Matx" }
%"class.cv::Matx" = type { [18 x double] }
%"struct.cv::optflow::GPCPatchSample" = type { %"struct.cv::optflow::GPCPatchDescriptor", %"struct.cv::optflow::GPCPatchDescriptor", %"struct.cv::optflow::GPCPatchDescriptor" }

; Function Attrs: inlinehint mustprogress nounwind uwtable
define internal noundef i32 @_ZL7cvIsNaNd(double noundef %0) #1 {
  %2 = alloca double, align 8
  store double %0, ptr %2, align 8, !tbaa !17
  %3 = load double, ptr %2, align 8, !tbaa !17
  %4 = call i1 @llvm.is.fpclass.f64(double %3, i32 3)
  %5 = zext i1 %4 to i32
  ret i32 %5
}

; Function Attrs: inlinehint mustprogress nounwind uwtable
define linkonce_odr hidden noundef nonnull align 8 dereferenceable(8) ptr @_ZNK2cv3VecIdLi18EEixEi(ptr noundef nonnull align 8 dereferenceable(144) %0, i32 noundef %1) #1 comdat align 2 {
  %3 = alloca ptr, align 8
  %4 = alloca i32, align 4
  store ptr %0, ptr %3, align 8, !tbaa !13
  store i32 %1, ptr %4, align 4, !tbaa !19
  %5 = load ptr, ptr %3, align 8
  %6 = getelementptr inbounds nuw %"class.cv::Matx", ptr %5, i32 0, i32 0
  %7 = load i32, ptr %4, align 4, !tbaa !19
  %8 = sext i32 %7 to i64
  %9 = getelementptr inbounds [18 x double], ptr %6, i64 0, i64 %8
  ret ptr %9
}

; Function Attrs: inlinehint mustprogress nounwind uwtable
define linkonce_odr hidden noundef double @_ZNK2cv4MatxIdLi18ELi1EE3dotERKS1_(ptr noundef nonnull align 8 dereferenceable(144) %0, ptr noundef nonnull align 8 dereferenceable(144) %1) #1 comdat align 2 {
  %3 = alloca ptr, align 8
  %4 = alloca ptr, align 8
  %5 = alloca double, align 8
  %6 = alloca i32, align 4
  store ptr %0, ptr %3, align 8, !tbaa !15
  store ptr %1, ptr %4, align 8, !tbaa !15
  %7 = load ptr, ptr %3, align 8
  call void @llvm.lifetime.start.p0(i64 8, ptr %5) #22
  store double 0.000000e+00, ptr %5, align 8, !tbaa !17
  call void @llvm.lifetime.start.p0(i64 4, ptr %6) #22
  store i32 0, ptr %6, align 4, !tbaa !19
  br label %8

8:                                                ; preds = %26, %2
  %9 = load i32, ptr %6, align 4, !tbaa !19
  %10 = icmp slt i32 %9, 18
  br i1 %10, label %12, label %11

11:                                               ; preds = %8
  call void @llvm.lifetime.end.p0(i64 4, ptr %6) #22
  br label %29

12:                                               ; preds = %8
  %13 = getelementptr inbounds nuw %"class.cv::Matx", ptr %7, i32 0, i32 0
  %14 = load i32, ptr %6, align 4, !tbaa !19
  %15 = sext i32 %14 to i64
  %16 = getelementptr inbounds [18 x double], ptr %13, i64 0, i64 %15
  %17 = load double, ptr %16, align 8, !tbaa !17
  %18 = load ptr, ptr %4, align 8, !tbaa !15
  %19 = getelementptr inbounds nuw %"class.cv::Matx", ptr %18, i32 0, i32 0
  %20 = load i32, ptr %6, align 4, !tbaa !19
  %21 = sext i32 %20 to i64
  %22 = getelementptr inbounds [18 x double], ptr %19, i64 0, i64 %21
  %23 = load double, ptr %22, align 8, !tbaa !17
  %24 = load double, ptr %5, align 8, !tbaa !17
  %25 = call double @llvm.fmuladd.f64(double %17, double %23, double %24)
  store double %25, ptr %5, align 8, !tbaa !17
  br label %26

26:                                               ; preds = %12
  %27 = load i32, ptr %6, align 4, !tbaa !19
  %28 = add nsw i32 %27, 1
  store i32 %28, ptr %6, align 4, !tbaa !19
  br label %8, !llvm.loop !21

29:                                               ; preds = %11
  %30 = load double, ptr %5, align 8, !tbaa !17
  call void @llvm.lifetime.end.p0(i64 8, ptr %5) #22
  ret double %30
}

; Function Attrs: mustprogress uwtable
define linkonce_odr hidden noundef zeroext i1 @_ZNK2cv7optflow18GPCPatchDescriptor11isSeparatedEv(ptr noundef nonnull align 8 dereferenceable(144) %0) #2 comdat align 2 {
  %2 = alloca ptr, align 8
  store ptr %0, ptr %2, align 8, !tbaa !11
  %3 = load ptr, ptr %2, align 8
  %4 = getelementptr inbounds nuw %"struct.cv::optflow::GPCPatchDescriptor", ptr %3, i32 0, i32 0
  %5 = call noundef nonnull align 8 dereferenceable(8) ptr @_ZNK2cv3VecIdLi18EEixEi(ptr noundef nonnull align 8 dereferenceable(144) %4, i32 noundef 0)
  %6 = load double, ptr %5, align 8, !tbaa !17
  %7 = call noundef i32 @_ZL7cvIsNaNd(double noundef %6)
  %8 = icmp ne i32 %7, 0
  ret i1 %8
}

; Function Attrs: mustprogress uwtable
define noundef double @_ZNK2cv7optflow18GPCPatchDescriptor3dotERKNS_3VecIdLi18EEE(ptr noundef nonnull align 8 dereferenceable(144) %0, ptr noundef nonnull align 8 dereferenceable(144) %1) #2 align 2 {
  %3 = alloca ptr, align 8
  %4 = alloca ptr, align 8
  store ptr %0, ptr %3, align 8, !tbaa !11
  store ptr %1, ptr %4, align 8, !tbaa !13
  %5 = load ptr, ptr %3, align 8
  %6 = getelementptr inbounds nuw %"struct.cv::optflow::GPCPatchDescriptor", ptr %5, i32 0, i32 0
  %7 = load ptr, ptr %4, align 8, !tbaa !13
  %8 = call noundef double @_ZNK2cv4MatxIdLi18ELi1EE3dotERKS1_(ptr noundef nonnull align 8 dereferenceable(144) %6, ptr noundef nonnull align 8 dereferenceable(144) %7)
  ret double %8
}

; Function Attrs: mustprogress uwtable
define void @_ZNK2cv7optflow14GPCPatchSample13getDirectionsERbS2_S2_RKNS_3VecIdLi18EEEd(ptr noundef nonnull align 8 dereferenceable(432) %0, ptr noundef nonnull align 1 dereferenceable(1) %1, ptr noundef nonnull align 1 dereferenceable(1) %2, ptr noundef nonnull align 1 dereferenceable(1) %3, ptr noundef nonnull align 8 dereferenceable(144) %4, double noundef %5) #2 align 2 {
  %7 = alloca ptr, align 8
  %8 = alloca ptr, align 8
  %9 = alloca ptr, align 8
  %10 = alloca ptr, align 8
  %11 = alloca ptr, align 8
  %12 = alloca double, align 8
  store ptr %0, ptr %7, align 8, !tbaa !23
  store ptr %1, ptr %8, align 8, !tbaa !25
  store ptr %2, ptr %9, align 8, !tbaa !25
  store ptr %3, ptr %10, align 8, !tbaa !25
  store ptr %4, ptr %11, align 8, !tbaa !13
  store double %5, ptr %12, align 8, !tbaa !17
  %13 = load ptr, ptr %7, align 8
  %14 = getelementptr inbounds nuw %"struct.cv::optflow::GPCPatchSample", ptr %13, i32 0, i32 0
  %15 = load ptr, ptr %11, align 8, !tbaa !13
  %16 = call noundef double @_ZNK2cv7optflow18GPCPatchDescriptor3dotERKNS_3VecIdLi18EEE(ptr noundef nonnull align 8 dereferenceable(144) %14, ptr noundef nonnull align 8 dereferenceable(144) %15)
  %17 = load double, ptr %12, align 8, !tbaa !17
  %18 = fcmp olt double %16, %17
  %19 = load ptr, ptr %8, align 8, !tbaa !25
  %20 = zext i1 %18 to i8
  store i8 %20, ptr %19, align 1, !tbaa !27
  %21 = getelementptr inbounds nuw %"struct.cv::optflow::GPCPatchSample", ptr %13, i32 0, i32 1
  %22 = call noundef zeroext i1 @_ZNK2cv7optflow18GPCPatchDescriptor11isSeparatedEv(ptr noundef nonnull align 8 dereferenceable(144) %21)
  br i1 %22, label %23, label %28

23:                                               ; preds = %6
  %24 = load ptr, ptr %8, align 8, !tbaa !25
  %25 = load i8, ptr %24, align 1, !tbaa !27, !range !29, !noundef !30
  %26 = trunc i8 %25 to i1
  %27 = xor i1 %26, true
  br label %34

28:                                               ; preds = %6
  %29 = getelementptr inbounds nuw %"struct.cv::optflow::GPCPatchSample", ptr %13, i32 0, i32 1
  %30 = load ptr, ptr %11, align 8, !tbaa !13
  %31 = call noundef double @_ZNK2cv7optflow18GPCPatchDescriptor3dotERKNS_3VecIdLi18EEE(ptr noundef nonnull align 8 dereferenceable(144) %29, ptr noundef nonnull align 8 dereferenceable(144) %30)
  %32 = load double, ptr %12, align 8, !tbaa !17
  %33 = fcmp olt double %31, %32
  br label %34

34:                                               ; preds = %28, %23
  %35 = phi i1 [ %27, %23 ], [ %33, %28 ]
  %36 = load ptr, ptr %9, align 8, !tbaa !25
  %37 = zext i1 %35 to i8
  store i8 %37, ptr %36, align 1, !tbaa !27
  %38 = getelementptr inbounds nuw %"struct.cv::optflow::GPCPatchSample", ptr %13, i32 0, i32 2
  %39 = call noundef zeroext i1 @_ZNK2cv7optflow18GPCPatchDescriptor11isSeparatedEv(ptr noundef nonnull align 8 dereferenceable(144) %38)
  br i1 %39, label %40, label %45

40:                                               ; preds = %34
  %41 = load ptr, ptr %8, align 8, !tbaa !25
  %42 = load i8, ptr %41, align 1, !tbaa !27, !range !29, !noundef !30
  %43 = trunc i8 %42 to i1
  %44 = xor i1 %43, true
  br label %51

45:                                               ; preds = %34
  %46 = getelementptr inbounds nuw %"struct.cv::optflow::GPCPatchSample", ptr %13, i32 0, i32 2
  %47 = load ptr, ptr %11, align 8, !tbaa !13
  %48 = call noundef double @_ZNK2cv7optflow18GPCPatchDescriptor3dotERKNS_3VecIdLi18EEE(ptr noundef nonnull align 8 dereferenceable(144) %46, ptr noundef nonnull align 8 dereferenceable(144) %47)
  %49 = load double, ptr %12, align 8, !tbaa !17
  %50 = fcmp olt double %48, %49
  br label %51

51:                                               ; preds = %45, %40
  %52 = phi i1 [ %44, %40 ], [ %50, %45 ]
  %53 = load ptr, ptr %10, align 8, !tbaa !25
  %54 = zext i1 %52 to i8
  store i8 %54, ptr %53, align 1, !tbaa !27
  ret void
}