; Function Attrs: mustprogress nofree norecurse nosync nounwind memory(argmem: readwrite) uwtable
define void @_ZNK2cv7optflow14GPCPatchSample13getDirectionsERbS2_S2_RKNS_3VecIdLi18EEEd(ptr noundef nonnull readonly align 8 captures(none) dereferenceable(432) %0, ptr noundef nonnull align 1 captures(none) dereferenceable(1) %1, ptr noundef nonnull writeonly align 1 captures(none) dereferenceable(1) %2, ptr noundef nonnull writeonly align 1 captures(none) dereferenceable(1) %3, ptr noundef nonnull readonly align 8 captures(none) dereferenceable(144) %4, double noundef %5) local_unnamed_addr #1 align 2 {
  br label %7

7:                                                ; preds = %7, %6
  %indvars.iv.i.i = phi i64 [ 0, %6 ], [ %indvars.iv.next.i.i, %7 ]
  %.078.i.i = phi double [ 0.000000e+00, %6 ], [ %12, %7 ]
  %8 = getelementptr inbounds nuw [18 x double], ptr %0, i64 0, i64 %indvars.iv.i.i
  %9 = load double, ptr %8, align 8, !tbaa !3
  %10 = getelementptr inbounds nuw [18 x double], ptr %4, i64 0, i64 %indvars.iv.i.i
  %11 = load double, ptr %10, align 8, !tbaa !3
  %12 = tail call double @llvm.fmuladd.f64(double %9, double %11, double %.078.i.i)
  %indvars.iv.next.i.i = add nuw nsw i64 %indvars.iv.i.i, 1
  %exitcond.not.i.i = icmp eq i64 %indvars.iv.next.i.i, 18
  br i1 %exitcond.not.i.i, label %_ZNK2cv7optflow18GPCPatchDescriptor3dotERKNS_3VecIdLi18EEE.exit, label %7, !llvm.loop !7

_ZNK2cv7optflow18GPCPatchDescriptor3dotERKNS_3VecIdLi18EEE.exit: ; preds = %7
  %13 = fcmp olt double %12, %5
  %14 = zext i1 %13 to i8
  store i8 %14, ptr %1, align 1, !tbaa !9
  %15 = getelementptr inbounds nuw i8, ptr %0, i64 144
  %16 = load double, ptr %15, align 8, !tbaa !3
  %17 = fcmp uno double %16, 0.000000e+00
  br i1 %17, label %18, label %.preheader22

18:                                               ; preds = %_ZNK2cv7optflow18GPCPatchDescriptor3dotERKNS_3VecIdLi18EEE.exit
  %19 = xor i1 %13, true
  br label %26

.preheader22:                                     ; preds = %_ZNK2cv7optflow18GPCPatchDescriptor3dotERKNS_3VecIdLi18EEE.exit, %.preheader22
  %indvars.iv.i.i12 = phi i64 [ %indvars.iv.next.i.i14, %.preheader22 ], [ 0, %_ZNK2cv7optflow18GPCPatchDescriptor3dotERKNS_3VecIdLi18EEE.exit ]
  %.078.i.i13 = phi double [ %24, %.preheader22 ], [ 0.000000e+00, %_ZNK2cv7optflow18GPCPatchDescriptor3dotERKNS_3VecIdLi18EEE.exit ]
  %20 = getelementptr inbounds nuw [18 x double], ptr %15, i64 0, i64 %indvars.iv.i.i12
  %21 = load double, ptr %20, align 8, !tbaa !3
  %22 = getelementptr inbounds nuw [18 x double], ptr %4, i64 0, i64 %indvars.iv.i.i12
  %23 = load double, ptr %22, align 8, !tbaa !3
  %24 = tail call double @llvm.fmuladd.f64(double %21, double %23, double %.078.i.i13)
  %indvars.iv.next.i.i14 = add nuw nsw i64 %indvars.iv.i.i12, 1
  %exitcond.not.i.i15 = icmp eq i64 %indvars.iv.next.i.i14, 18
  br i1 %exitcond.not.i.i15, label %_ZNK2cv7optflow18GPCPatchDescriptor3dotERKNS_3VecIdLi18EEE.exit16, label %.preheader22, !llvm.loop !7

_ZNK2cv7optflow18GPCPatchDescriptor3dotERKNS_3VecIdLi18EEE.exit16: ; preds = %.preheader22
  %25 = fcmp olt double %24, %5
  br label %26

26:                                               ; preds = %_ZNK2cv7optflow18GPCPatchDescriptor3dotERKNS_3VecIdLi18EEE.exit16, %18
  %27 = phi i1 [ %19, %18 ], [ %25, %_ZNK2cv7optflow18GPCPatchDescriptor3dotERKNS_3VecIdLi18EEE.exit16 ]
  %28 = zext i1 %27 to i8
  store i8 %28, ptr %2, align 1, !tbaa !9
  %29 = getelementptr inbounds nuw i8, ptr %0, i64 288
  %30 = load double, ptr %29, align 8, !tbaa !3
  %31 = fcmp uno double %30, 0.000000e+00
  br i1 %31, label %32, label %.preheader

32:                                               ; preds = %26
  %33 = load i8, ptr %1, align 1, !tbaa !9, !range !11, !noundef !12
  %34 = trunc nuw i8 %33 to i1
  %35 = xor i1 %34, true
  br label %42

.preheader:                                       ; preds = %26, %.preheader
  %indvars.iv.i.i17 = phi i64 [ %indvars.iv.next.i.i19, %.preheader ], [ 0, %26 ]
  %.078.i.i18 = phi double [ %40, %.preheader ], [ 0.000000e+00, %26 ]
  %36 = getelementptr inbounds nuw [18 x double], ptr %29, i64 0, i64 %indvars.iv.i.i17
  %37 = load double, ptr %36, align 8, !tbaa !3
  %38 = getelementptr inbounds nuw [18 x double], ptr %4, i64 0, i64 %indvars.iv.i.i17
  %39 = load double, ptr %38, align 8, !tbaa !3
  %40 = tail call double @llvm.fmuladd.f64(double %37, double %39, double %.078.i.i18)
  %indvars.iv.next.i.i19 = add nuw nsw i64 %indvars.iv.i.i17, 1
  %exitcond.not.i.i20 = icmp eq i64 %indvars.iv.next.i.i19, 18
  br i1 %exitcond.not.i.i20, label %_ZNK2cv7optflow18GPCPatchDescriptor3dotERKNS_3VecIdLi18EEE.exit21, label %.preheader, !llvm.loop !7

_ZNK2cv7optflow18GPCPatchDescriptor3dotERKNS_3VecIdLi18EEE.exit21: ; preds = %.preheader
  %41 = fcmp olt double %40, %5
  br label %42

42:                                               ; preds = %_ZNK2cv7optflow18GPCPatchDescriptor3dotERKNS_3VecIdLi18EEE.exit21, %32
  %43 = phi i1 [ %35, %32 ], [ %41, %_ZNK2cv7optflow18GPCPatchDescriptor3dotERKNS_3VecIdLi18EEE.exit21 ]
  %44 = zext i1 %43 to i8
  store i8 %44, ptr %3, align 1, !tbaa !9
  ret void
}